; Function Attrs: null_pointer_is_valid sspstrong uwtable
define internal noundef i32 @dissect_context_cif1(ptr noundef %0, ptr noundef %1, i32 noundef %2) #0 {
  %4 = load i32, ptr getelementptr inbounds nuw (i8, ptr @hf_vrt_cif, i64 4), align 4
  %5 = tail call ptr @proto_tree_add_item(ptr noundef %0, i32 noundef %4, ptr noundef %1, i32 noundef %2, i32 noundef 4, i32 noundef 0)
  %6 = load i32, ptr @ett_cif1, align 4
  %7 = tail call ptr @proto_item_add_subtree(ptr noundef %5, i32 noundef %6)
  tail call void @proto_tree_add_bitmask_list(ptr noundef %7, ptr noundef %1, i32 noundef %2, i32 noundef 1, ptr noundef nonnull @dissect_context_cif1.oct1_flags, i32 noundef 0)
  %8 = add i32 %2, 1
  tail call void @proto_tree_add_bitmask_list(ptr noundef %7, ptr noundef %1, i32 noundef %8, i32 noundef 1, ptr noundef nonnull @dissect_context_cif1.oct2_flags, i32 noundef 0)
  %9 = add i32 %2, 2
  tail call void @proto_tree_add_bitmask_list(ptr noundef %7, ptr noundef %1, i32 noundef %9, i32 noundef 1, ptr noundef nonnull @dissect_context_cif1.oct3_flags, i32 noundef 0)
  %10 = add i32 %2, 3
  tail call void @proto_tree_add_bitmask_list(ptr noundef %7, ptr noundef %1, i32 noundef %10, i32 noundef 1, ptr noundef nonnull @dissect_context_cif1.oct4_flags, i32 noundef 0)
  ret i32 0
}